target datalayout = "e-m:e-p270:32:32-p271:32:32-p272:64:64-i64:64-i128:128-f80:128-n8:16:32:64-S128"
target triple = "x86_64-pc-linux-gnu"

%"class.casadi::scoped_checkout" = type { i32, ptr }

; Function Attrs: mustprogress uwtable
define noundef i64 @_ZNK6casadi8Function8checkoutEv(ptr noundef nonnull align 8 dereferenceable(8) %0) #6 align 2 {
  %2 = alloca ptr, align 8
  store ptr %0, ptr %2, align 8, !tbaa !23
  %3 = load ptr, ptr %2, align 8
  %4 = call noundef ptr @_ZNK6casadi8FunctionptEv(ptr noundef nonnull align 8 dereferenceable(8) %3)
  %5 = call noundef i32 @_ZNK6casadi13ProtoFunction8checkoutEv(ptr noundef nonnull align 8 dereferenceable(168) %4)
  %6 = sext i32 %5 to i64
  ret i64 %6
}

; Function Attrs: mustprogress nounwind uwtable
define linkonce_odr hidden noundef i64 @_ZNK6casadi15scoped_checkoutINS_8FunctionEEcvxEv(ptr noundef nonnull align 8 dereferenceable(16) %0) #5 comdat align 2 {
  %2 = alloca ptr, align 8
  store ptr %0, ptr %2, align 8, !tbaa !462
  %3 = load ptr, ptr %2, align 8
  %4 = getelementptr inbounds nuw %"class.casadi::scoped_checkout", ptr %3, i32 0, i32 0
  %5 = load i32, ptr %4, align 8, !tbaa !466
  %6 = sext i32 %5 to i64
  ret i64 %6
}

; Function Attrs: mustprogress uwtable
define linkonce_odr hidden void @_ZN6casadi15scoped_checkoutINS_8FunctionEEC2ERKS1_(ptr noundef nonnull align 8 dereferenceable(16) %0, ptr noundef nonnull align 8 dereferenceable(8) %1) unnamed_addr #6 comdat align 2 {
  %3 = alloca ptr, align 8
  %4 = alloca ptr, align 8
  store ptr %0, ptr %3, align 8, !tbaa !462
  store ptr %1, ptr %4, align 8, !tbaa !23
  %5 = load ptr, ptr %3, align 8
  %6 = getelementptr inbounds nuw %"class.casadi::scoped_checkout", ptr %5, i32 0, i32 1
  %7 = load ptr, ptr %4, align 8, !tbaa !23
  store ptr %7, ptr %6, align 8, !tbaa !23
  %8 = getelementptr inbounds nuw %"class.casadi::scoped_checkout", ptr %5, i32 0, i32 1
  %9 = load ptr, ptr %8, align 8, !tbaa !464
  %10 = call noundef i64 @_ZNK6casadi8Function8checkoutEv(ptr noundef nonnull align 8 dereferenceable(8) %9)
  %11 = trunc i64 %10 to i32
  %12 = getelementptr inbounds nuw %"class.casadi::scoped_checkout", ptr %5, i32 0, i32 0
  store i32 %11, ptr %12, align 8, !tbaa !466
  ret void
}

; Function Attrs: mustprogress uwtable
define noundef i32 @_ZNK6casadi8FunctionclEPPKdPPdPxS4_(ptr noundef nonnull align 8 dereferenceable(8) %0, ptr noundef %1, ptr noundef %2, ptr noundef %3, ptr noundef %4) #6 align 2 personality ptr @__gxx_personality_v0 {
  %6 = alloca ptr, align 8
  %7 = alloca ptr, align 8
  %8 = alloca ptr, align 8
  %9 = alloca ptr, align 8
  %10 = alloca ptr, align 8
  %11 = alloca %"class.casadi::scoped_checkout", align 8
  %12 = alloca ptr, align 8
  %13 = alloca i32, align 4
  store ptr %0, ptr %6, align 8, !tbaa !23
  store ptr %1, ptr %7, align 8, !tbaa !247
  store ptr %2, ptr %8, align 8, !tbaa !247
  store ptr %3, ptr %9, align 8, !tbaa !299
  store ptr %4, ptr %10, align 8, !tbaa !192
  %14 = load ptr, ptr %6, align 8
  call void @llvm.lifetime.start.p0(i64 16, ptr %11) #3
  call void @_ZN6casadi15scoped_checkoutINS_8FunctionEEC2ERKS1_(ptr noundef nonnull align 8 dereferenceable(16) %11, ptr noundef nonnull align 8 dereferenceable(8) %14)
  %15 = load ptr, ptr %7, align 8, !tbaa !247
  %16 = load ptr, ptr %8, align 8, !tbaa !247
  %17 = load ptr, ptr %9, align 8, !tbaa !299
  %18 = load ptr, ptr %10, align 8, !tbaa !192
  %19 = invoke noundef i64 @_ZNK6casadi15scoped_checkoutINS_8FunctionEEcvxEv(ptr noundef nonnull align 8 dereferenceable(16) %11)
          to label %20 unwind label %24

20:                                               ; preds = %5
  %21 = trunc i64 %19 to i32
  %22 = invoke noundef i32 @_ZNK6casadi8FunctionclEPPKdPPdPxS4_i(ptr noundef nonnull align 8 dereferenceable(8) %14, ptr noundef %15, ptr noundef %16, ptr noundef %17, ptr noundef %18, i32 noundef %21)
          to label %23 unwind label %24

23:                                               ; preds = %20
  call void @_ZN6casadi15scoped_checkoutINS_8FunctionEED2Ev(ptr noundef nonnull align 8 dereferenceable(16) %11) #3
  call void @llvm.lifetime.end.p0(i64 16, ptr %11) #3
  ret i32 %22

24:                                               ; preds = %20, %5
  %25 = landingpad { ptr, i32 }
          cleanup
  %26 = extractvalue { ptr, i32 } %25, 0
  store ptr %26, ptr %12, align 8
  %27 = extractvalue { ptr, i32 } %25, 1
  store i32 %27, ptr %13, align 4
  call void @_ZN6casadi15scoped_checkoutINS_8FunctionEED2Ev(ptr noundef nonnull align 8 dereferenceable(16) %11) #3
  call void @llvm.lifetime.end.p0(i64 16, ptr %11) #3
  br label %28

28:                                               ; preds = %24
  %29 = load ptr, ptr %12, align 8
  %30 = load i32, ptr %13, align 4
  %31 = insertvalue { ptr, i32 } poison, ptr %29, 0
  %32 = insertvalue { ptr, i32 } %31, i32 %30, 1
  resume { ptr, i32 } %32
}