; Function Attrs: mustprogress uwtable
define noundef i32 @_ZNK6casadi8FunctionclEPPKdPPdPxS4_(ptr noundef nonnull align 8 dereferenceable(8) %0, ptr noundef %1, ptr noundef %2, ptr noundef %3, ptr noundef %4) local_unnamed_addr #4 align 2 personality ptr @__gxx_personality_v0 {
  %6 = alloca %"class.casadi::scoped_checkout", align 8
  call void @llvm.lifetime.start.p0(i64 16, ptr nonnull %6) #30
  %7 = getelementptr inbounds nuw i8, ptr %6, i64 8
  store ptr %0, ptr %7, align 8, !tbaa !391
  %8 = tail call noundef ptr @_ZNK6casadi8FunctionptEv(ptr noundef nonnull align 8 dereferenceable(8) %0)
  %9 = tail call noundef i32 @_ZNK6casadi13ProtoFunction8checkoutEv(ptr noundef nonnull align 8 dereferenceable(168) %8)
  store i32 %9, ptr %6, align 8, !tbaa !707
  %10 = invoke noundef i32 @_ZNK6casadi8FunctionclEPPKdPPdPxS4_i(ptr noundef nonnull align 8 dereferenceable(8) %0, ptr noundef %1, ptr noundef %2, ptr noundef %3, ptr noundef %4, i32 noundef %9)
          to label %11 unwind label %17

11:                                               ; preds = %5
  %.not.i = icmp eq i32 %9, -1
  br i1 %.not.i, label %_ZN6casadi15scoped_checkoutINS_8FunctionEED2Ev.exit, label %12

12:                                               ; preds = %11
  %13 = invoke noundef ptr @_ZNK6casadi8FunctionptEv(ptr noundef nonnull align 8 dereferenceable(8) %0)
          to label %.noexc.i unwind label %14

.noexc.i:                                         ; preds = %12
  invoke void @_ZNK6casadi13ProtoFunction7releaseEi(ptr noundef nonnull align 8 dereferenceable(168) %13, i32 noundef %9)
          to label %_ZN6casadi15scoped_checkoutINS_8FunctionEED2Ev.exit unwind label %14

14:                                               ; preds = %.noexc.i, %12
  %15 = landingpad { ptr, i32 }
          catch ptr null
  %16 = extractvalue { ptr, i32 } %15, 0
  tail call void @__clang_call_terminate(ptr %16) #32
  unreachable

_ZN6casadi15scoped_checkoutINS_8FunctionEED2Ev.exit: ; preds = %11, %.noexc.i
  call void @llvm.lifetime.end.p0(i64 16, ptr nonnull %6) #30
  ret i32 %10

17:                                               ; preds = %5
  %18 = landingpad { ptr, i32 }
          cleanup
  call void @_ZN6casadi15scoped_checkoutINS_8FunctionEED2Ev(ptr noundef nonnull align 8 dereferenceable(16) %6) #30
  call void @llvm.lifetime.end.p0(i64 16, ptr nonnull %6) #30
  resume { ptr, i32 } %18
}